target datalayout = "e-m:e-p270:32:32-p271:32:32-p272:64:64-i64:64-i128:128-f80:128-n8:16:32:64-S128"
target triple = "x86_64-pc-linux-gnu"

%struct._GArray = type { ptr, i32 }
%struct._GPtrArray = type { ptr, i32 }

@disas_assist = internal global i8 0, align 1
@all_reg_names = internal global ptr null, align 8
@imatches = internal global ptr null, align 8
@amatches = internal global ptr null, align 8
@rmatches = internal global ptr null, align 8
@.str.9 = private unnamed_addr constant [2 x i8] c" \00", align 1
@.str.10 = private unnamed_addr constant [18 x i8] c"0x%lx, 0x%x, \22%s\22\00", align 1

; Function Attrs: nounwind sspstrong uwtable
define internal void @vcpu_tb_trans(i64 noundef %0, ptr noundef %1) #0 {
  %3 = alloca i64, align 8
  %4 = alloca ptr, align 8
  %5 = alloca ptr, align 8
  %6 = alloca i8, align 1
  %7 = alloca i8, align 1
  %8 = alloca i8, align 1
  %9 = alloca i64, align 8
  %10 = alloca i64, align 8
  %11 = alloca i32, align 4
  %12 = alloca ptr, align 8
  %13 = alloca i64, align 8
  %14 = alloca i32, align 4
  %15 = alloca ptr, align 8
  %16 = alloca i32, align 4
  %17 = alloca i64, align 8
  %18 = alloca ptr, align 8
  %19 = alloca i32, align 4
  %20 = alloca ptr, align 8
  %21 = alloca i32, align 4
  %22 = alloca ptr, align 8
  store i64 %0, ptr %3, align 8
  store ptr %1, ptr %4, align 8
  call void @llvm.lifetime.start.p0(i64 8, ptr %5) #11
  store ptr null, ptr %5, align 8, !annotation !7
  call void @llvm.lifetime.start.p0(i64 1, ptr %6) #11
  %23 = load ptr, ptr @imatches, align 8
  %24 = icmp ne ptr %23, null
  br i1 %24, label %28, label %25

25:                                               ; preds = %2
  %26 = load ptr, ptr @amatches, align 8
  %27 = icmp ne ptr %26, null
  br label %28

28:                                               ; preds = %25, %2
  %29 = phi i1 [ true, %2 ], [ %27, %25 ]
  %30 = zext i1 %29 to i8
  store i8 %30, ptr %6, align 1
  call void @llvm.lifetime.start.p0(i64 1, ptr %7) #11
  %31 = load ptr, ptr @rmatches, align 8
  %32 = icmp ne ptr %31, null
  %33 = zext i1 %32 to i8
  store i8 %33, ptr %7, align 1
  call void @llvm.lifetime.start.p0(i64 1, ptr %8) #11
  store i8 0, ptr %8, align 1
  call void @llvm.lifetime.start.p0(i64 8, ptr %9) #11
  %34 = load ptr, ptr %4, align 8
  %35 = call i64 @qemu_plugin_tb_n_insns(ptr noundef %34)
  store i64 %35, ptr %9, align 8
  call void @llvm.lifetime.start.p0(i64 8, ptr %10) #11
  store i64 0, ptr %10, align 8
  br label %36

36:                                               ; preds = %202, %28
  %37 = load i64, ptr %10, align 8
  %38 = load i64, ptr %9, align 8
  %39 = icmp ult i64 %37, %38
  br i1 %39, label %41, label %40

40:                                               ; preds = %36
  store i32 2, ptr %11, align 4
  call void @llvm.lifetime.end.p0(i64 8, ptr %10) #11
  br label %205

41:                                               ; preds = %36
  call void @llvm.lifetime.start.p0(i64 8, ptr %12) #11
  store ptr null, ptr %12, align 8, !annotation !7
  call void @llvm.lifetime.start.p0(i64 8, ptr %13) #11
  store i64 0, ptr %13, align 8, !annotation !7
  %42 = load ptr, ptr %4, align 8
  %43 = load i64, ptr %10, align 8
  %44 = call ptr @qemu_plugin_tb_get_insn(ptr noundef %42, i64 noundef %43)
  store ptr %44, ptr %5, align 8
  %45 = load ptr, ptr %5, align 8
  %46 = call ptr @qemu_plugin_insn_disas(ptr noundef %45)
  store ptr %46, ptr %12, align 8
  %47 = load ptr, ptr %5, align 8
  %48 = call i64 @qemu_plugin_insn_vaddr(ptr noundef %47)
  store i64 %48, ptr %13, align 8
  %49 = load i8, ptr %6, align 1, !range !3, !noundef !4
  %50 = trunc i8 %49 to i1
  br i1 %50, label %51, label %87

51:                                               ; preds = %41
  %52 = load ptr, ptr @imatches, align 8
  %53 = icmp ne ptr %52, null
  br i1 %53, label %54, label %87

54:                                               ; preds = %51
  call void @llvm.lifetime.start.p0(i64 4, ptr %14) #11
  store i32 0, ptr %14, align 4, !annotation !7
  store i32 0, ptr %14, align 4
  br label %55

55:                                               ; preds = %83, %54
  %56 = load i32, ptr %14, align 4
  %57 = load ptr, ptr @imatches, align 8
  %58 = getelementptr inbounds nuw %struct._GPtrArray, ptr %57, i32 0, i32 1
  %59 = load i32, ptr %58, align 8
  %60 = icmp ult i32 %56, %59
  br i1 %60, label %61, label %64

61:                                               ; preds = %55
  %62 = load i8, ptr %6, align 1, !range !3, !noundef !4
  %63 = trunc i8 %62 to i1
  br label %64

64:                                               ; preds = %61, %55
  %65 = phi i1 [ false, %55 ], [ %63, %61 ]
  br i1 %65, label %66, label %86

66:                                               ; preds = %64
  call void @llvm.lifetime.start.p0(i64 8, ptr %15) #11
  %67 = load ptr, ptr @imatches, align 8
  %68 = getelementptr inbounds nuw %struct._GPtrArray, ptr %67, i32 0, i32 0
  %69 = load ptr, ptr %68, align 8
  %70 = load i32, ptr %14, align 4
  %71 = sext i32 %70 to i64
  %72 = getelementptr inbounds ptr, ptr %69, i64 %71
  %73 = load ptr, ptr %72, align 8
  store ptr %73, ptr %15, align 8
  %74 = load ptr, ptr %12, align 8
  %75 = load ptr, ptr %15, align 8
  %76 = call i32 @g_str_has_prefix(ptr noundef %74, ptr noundef %75)
  %77 = icmp ne i32 %76, 0
  br i1 %77, label %78, label %82

78:                                               ; preds = %66
  store i8 0, ptr %6, align 1
  %79 = load ptr, ptr @rmatches, align 8
  %80 = icmp ne ptr %79, null
  %81 = zext i1 %80 to i8
  store i8 %81, ptr %8, align 1
  br label %82

82:                                               ; preds = %78, %66
  call void @llvm.lifetime.end.p0(i64 8, ptr %15) #11
  br label %83

83:                                               ; preds = %82
  %84 = load i32, ptr %14, align 4
  %85 = add i32 %84, 1
  store i32 %85, ptr %14, align 4
  br label %55, !llvm.loop !8

86:                                               ; preds = %64
  call void @llvm.lifetime.end.p0(i64 4, ptr %14) #11
  br label %87

87:                                               ; preds = %86, %51, %41
  %88 = load i8, ptr %6, align 1, !range !3, !noundef !4
  %89 = trunc i8 %88 to i1
  br i1 %89, label %90, label %122

90:                                               ; preds = %87
  %91 = load ptr, ptr @amatches, align 8
  %92 = icmp ne ptr %91, null
  br i1 %92, label %93, label %122

93:                                               ; preds = %90
  call void @llvm.lifetime.start.p0(i64 4, ptr %16) #11
  store i32 0, ptr %16, align 4, !annotation !7
  store i32 0, ptr %16, align 4
  br label %94

94:                                               ; preds = %118, %93
  %95 = load i32, ptr %16, align 4
  %96 = load ptr, ptr @amatches, align 8
  %97 = getelementptr inbounds nuw %struct._GArray, ptr %96, i32 0, i32 1
  %98 = load i32, ptr %97, align 8
  %99 = icmp ult i32 %95, %98
  br i1 %99, label %100, label %103

100:                                              ; preds = %94
  %101 = load i8, ptr %6, align 1, !range !3, !noundef !4
  %102 = trunc i8 %101 to i1
  br label %103

103:                                              ; preds = %100, %94
  %104 = phi i1 [ false, %94 ], [ %102, %100 ]
  br i1 %104, label %105, label %121

105:                                              ; preds = %103
  call void @llvm.lifetime.start.p0(i64 8, ptr %17) #11
  %106 = load ptr, ptr @amatches, align 8
  %107 = getelementptr inbounds nuw %struct._GArray, ptr %106, i32 0, i32 0
  %108 = load ptr, ptr %107, align 8
  %109 = load i32, ptr %16, align 4
  %110 = sext i32 %109 to i64
  %111 = getelementptr inbounds i64, ptr %108, i64 %110
  %112 = load i64, ptr %111, align 8
  store i64 %112, ptr %17, align 8
  %113 = load i64, ptr %17, align 8
  %114 = load i64, ptr %13, align 8
  %115 = icmp eq i64 %113, %114
  br i1 %115, label %116, label %117

116:                                              ; preds = %105
  store i8 0, ptr %6, align 1
  br label %117

117:                                              ; preds = %116, %105
  call void @llvm.lifetime.end.p0(i64 8, ptr %17) #11
  br label %118

118:                                              ; preds = %117
  %119 = load i32, ptr %16, align 4
  %120 = add i32 %119, 1
  store i32 %120, ptr %16, align 4
  br label %94, !llvm.loop !9

121:                                              ; preds = %103
  call void @llvm.lifetime.end.p0(i64 4, ptr %16) #11
  br label %122

122:                                              ; preds = %121, %90, %87
  %123 = load i8, ptr @disas_assist, align 1, !range !3, !noundef !4
  %124 = trunc i8 %123 to i1
  br i1 %124, label %125, label %156

125:                                              ; preds = %122
  %126 = load ptr, ptr @rmatches, align 8
  %127 = icmp ne ptr %126, null
  br i1 %127, label %128, label %156

128:                                              ; preds = %125
  store i8 0, ptr %8, align 1
  call void @llvm.lifetime.start.p0(i64 8, ptr %18) #11
  %129 = load ptr, ptr %12, align 8
  %130 = call ptr @g_strstr_len(ptr noundef %129, i64 noundef -1, ptr noundef @.str.9)
  store ptr %130, ptr %18, align 8
  call void @llvm.lifetime.start.p0(i64 4, ptr %19) #11
  store i32 0, ptr %19, align 4
  br label %131

131:                                              ; preds = %152, %128
  %132 = load i32, ptr %19, align 4
  %133 = load ptr, ptr @all_reg_names, align 8
  %134 = getelementptr inbounds nuw %struct._GPtrArray, ptr %133, i32 0, i32 1
  %135 = load i32, ptr %134, align 8
  %136 = icmp ult i32 %132, %135
  br i1 %136, label %138, label %137

137:                                              ; preds = %131
  store i32 11, ptr %11, align 4
  call void @llvm.lifetime.end.p0(i64 4, ptr %19) #11
  br label %155

138:                                              ; preds = %131
  call void @llvm.lifetime.start.p0(i64 8, ptr %20) #11
  %139 = load ptr, ptr @all_reg_names, align 8
  %140 = getelementptr inbounds nuw %struct._GPtrArray, ptr %139, i32 0, i32 0
  %141 = load ptr, ptr %140, align 8
  %142 = load i32, ptr %19, align 4
  %143 = sext i32 %142 to i64
  %144 = getelementptr inbounds ptr, ptr %141, i64 %143
  %145 = load ptr, ptr %144, align 8
  store ptr %145, ptr %20, align 8
  %146 = load ptr, ptr %18, align 8
  %147 = load ptr, ptr %20, align 8
  %148 = call ptr @g_strrstr(ptr noundef %146, ptr noundef %147)
  %149 = icmp ne ptr %148, null
  br i1 %149, label %150, label %151

150:                                              ; preds = %138
  store i8 1, ptr %8, align 1
  store i8 0, ptr %6, align 1
  br label %151

151:                                              ; preds = %150, %138
  call void @llvm.lifetime.end.p0(i64 8, ptr %20) #11
  br label %152

152:                                              ; preds = %151
  %153 = load i32, ptr %19, align 4
  %154 = add i32 %153, 1
  store i32 %154, ptr %19, align 4
  br label %131, !llvm.loop !10

155:                                              ; preds = %137
  call void @llvm.lifetime.end.p0(i64 8, ptr %18) #11
  br label %156

156:                                              ; preds = %155, %125, %122
  %157 = load i8, ptr %6, align 1, !range !3, !noundef !4
  %158 = trunc i8 %157 to i1
  br i1 %158, label %159, label %165

159:                                              ; preds = %156
  %160 = load i8, ptr %7, align 1, !range !3, !noundef !4
  %161 = trunc i8 %160 to i1
  br i1 %161, label %162, label %164

162:                                              ; preds = %159
  %163 = load ptr, ptr %5, align 8
  call void @qemu_plugin_register_vcpu_insn_exec_cb(ptr noundef %163, ptr noundef @vcpu_insn_exec_only_regs, i32 noundef 1, ptr noundef null)
  br label %164

164:                                              ; preds = %162, %159
  br label %190

165:                                              ; preds = %156
  call void @llvm.lifetime.start.p0(i64 4, ptr %21) #11
  store i32 0, ptr %21, align 4
  %166 = load ptr, ptr %5, align 8
  %167 = call i64 @qemu_plugin_insn_data(ptr noundef %166, ptr noundef %21, i64 noundef 4)
  call void @llvm.lifetime.start.p0(i64 8, ptr %22) #11
  %168 = load i64, ptr %13, align 8
  %169 = load i32, ptr %21, align 4
  %170 = load ptr, ptr %12, align 8
  %171 = call noalias ptr (ptr, ...) @g_strdup_printf(ptr noundef @.str.10, i64 noundef %168, i32 noundef %169, ptr noundef %170)
  store ptr %171, ptr %22, align 8
  %172 = load ptr, ptr %5, align 8
  call void @qemu_plugin_register_vcpu_mem_cb(ptr noundef %172, ptr noundef @vcpu_mem, i32 noundef 0, i32 noundef 3, ptr noundef null)
  %173 = load i8, ptr %7, align 1, !range !3, !noundef !4
  %174 = trunc i8 %173 to i1
  br i1 %174, label %175, label %178

175:                                              ; preds = %165
  %176 = load ptr, ptr %5, align 8
  %177 = load ptr, ptr %22, align 8
  call void @qemu_plugin_register_vcpu_insn_exec_cb(ptr noundef %176, ptr noundef @vcpu_insn_exec_with_regs, i32 noundef 1, ptr noundef %177)
  br label %181

178:                                              ; preds = %165
  %179 = load ptr, ptr %5, align 8
  %180 = load ptr, ptr %22, align 8
  call void @qemu_plugin_register_vcpu_insn_exec_cb(ptr noundef %179, ptr noundef @vcpu_insn_exec, i32 noundef 0, ptr noundef %180)
  br label %181

181:                                              ; preds = %178, %175
  %182 = load ptr, ptr @imatches, align 8
  %183 = icmp ne ptr %182, null
  br i1 %183, label %187, label %184

184:                                              ; preds = %181
  %185 = load ptr, ptr @amatches, align 8
  %186 = icmp ne ptr %185, null
  br label %187

187:                                              ; preds = %184, %181
  %188 = phi i1 [ true, %181 ], [ %186, %184 ]
  %189 = zext i1 %188 to i8
  store i8 %189, ptr %6, align 1
  call void @llvm.lifetime.end.p0(i64 8, ptr %22) #11
  call void @llvm.lifetime.end.p0(i64 4, ptr %21) #11
  br label %190

190:                                              ; preds = %187, %164
  %191 = load i8, ptr @disas_assist, align 1, !range !3, !noundef !4
  %192 = trunc i8 %191 to i1
  br i1 %192, label %193, label %200

193:                                              ; preds = %190
  %194 = load ptr, ptr @rmatches, align 8
  %195 = icmp ne ptr %194, null
  br i1 %195, label %196, label %200

196:                                              ; preds = %193
  %197 = load i8, ptr %8, align 1, !range !3, !noundef !4
  %198 = trunc i8 %197 to i1
  %199 = zext i1 %198 to i8
  store i8 %199, ptr %7, align 1
  br label %200

200:                                              ; preds = %196, %193, %190
  %201 = load ptr, ptr %12, align 8
  call void @g_free(ptr noundef %201)
  call void @llvm.lifetime.end.p0(i64 8, ptr %13) #11
  call void @llvm.lifetime.end.p0(i64 8, ptr %12) #11
  br label %202

202:                                              ; preds = %200
  %203 = load i64, ptr %10, align 8
  %204 = add i64 %203, 1
  store i64 %204, ptr %10, align 8
  br label %36, !llvm.loop !11

205:                                              ; preds = %40
  call void @llvm.lifetime.end.p0(i64 8, ptr %9) #11
  call void @llvm.lifetime.end.p0(i64 1, ptr %8) #11
  call void @llvm.lifetime.end.p0(i64 1, ptr %7) #11
  call void @llvm.lifetime.end.p0(i64 1, ptr %6) #11
  call void @llvm.lifetime.end.p0(i64 8, ptr %5) #11
  ret void
}