; Function Attrs: nounwind sspstrong uwtable
define internal void @vcpu_tb_trans(i64 %0, ptr noundef %1) #0 {
  %3 = alloca i32, align 4
  %4 = load ptr, ptr @imatches, align 8
  %5 = load ptr, ptr @amatches, align 8
  %6 = load ptr, ptr @rmatches, align 8
  %7 = tail call i64 @qemu_plugin_tb_n_insns(ptr noundef %1) #7
  %.not87 = icmp eq i64 %7, 0
  br i1 %.not87, label %._crit_edge, label %.lr.ph86.preheader

.lr.ph86.preheader:                               ; preds = %2
  %8 = icmp ne ptr %6, null
  %9 = zext i1 %8 to i8
  %10 = icmp ne ptr %4, null
  %11 = icmp ne ptr %5, null
  %12 = select i1 %10, i1 true, i1 %11
  %13 = zext i1 %12 to i8
  br label %.lr.ph86

._crit_edge:                                      ; preds = %89, %2
  ret void

.lr.ph86:                                         ; preds = %.lr.ph86.preheader, %89
  %.085 = phi i8 [ %.10, %89 ], [ %13, %.lr.ph86.preheader ]
  %.04984 = phi i8 [ %spec.select64, %89 ], [ %9, %.lr.ph86.preheader ]
  %.05183 = phi i8 [ %.455, %89 ], [ 0, %.lr.ph86.preheader ]
  %.05982 = phi i64 [ %94, %89 ], [ 0, %.lr.ph86.preheader ]
  %14 = call ptr @qemu_plugin_tb_get_insn(ptr noundef %1, i64 noundef %.05982) #7
  %15 = call ptr @qemu_plugin_insn_disas(ptr noundef %14) #7
  %16 = call i64 @qemu_plugin_insn_vaddr(ptr noundef %14) #7
  %17 = trunc nuw i8 %.085 to i1
  %18 = load ptr, ptr @imatches, align 8
  %19 = icmp ne ptr %18, null
  %or.cond = select i1 %17, i1 %19, i1 false
  br i1 %or.cond, label %.preheader66, label %.loopexit67

.preheader66:                                     ; preds = %.lr.ph86
  %20 = getelementptr inbounds nuw i8, ptr %18, i64 8
  %21 = load i32, ptr %20, align 8
  %.not88 = icmp eq i32 %21, 0
  br i1 %.not88, label %.loopexit67, label %.lr.ph

.lr.ph:                                           ; preds = %.preheader66, %.lr.ph
  %22 = phi ptr [ %32, %.lr.ph ], [ %18, %.preheader66 ]
  %.25369 = phi i8 [ %.354, %.lr.ph ], [ %.05183, %.preheader66 ]
  %.06068 = phi i32 [ %31, %.lr.ph ], [ 0, %.preheader66 ]
  %23 = load ptr, ptr %22, align 8
  %24 = sext i32 %.06068 to i64
  %25 = getelementptr inbounds ptr, ptr %23, i64 %24
  %26 = load ptr, ptr %25, align 8
  %27 = call i32 @g_str_has_prefix(ptr noundef %15, ptr noundef %26) #7
  %.not61 = icmp eq i32 %27, 0
  %28 = load ptr, ptr @rmatches, align 8
  %29 = icmp ne ptr %28, null
  %30 = zext i1 %29 to i8
  %.354 = select i1 %.not61, i8 %.25369, i8 %30
  %31 = add nuw i32 %.06068, 1
  %32 = load ptr, ptr @imatches, align 8
  %33 = getelementptr inbounds nuw i8, ptr %32, i64 8
  %34 = load i32, ptr %33, align 8
  %35 = icmp ult i32 %31, %34
  %36 = select i1 %35, i1 %.not61, i1 false
  br i1 %36, label %.lr.ph, label %.loopexit67.loopexit, !llvm.loop !11

.loopexit67.loopexit:                             ; preds = %.lr.ph
  %.3 = zext i1 %.not61 to i8
  br label %.loopexit67

.loopexit67:                                      ; preds = %.loopexit67.loopexit, %.preheader66, %.lr.ph86
  %.152 = phi i8 [ %.05183, %.lr.ph86 ], [ %.05183, %.preheader66 ], [ %.354, %.loopexit67.loopexit ]
  %.1 = phi i8 [ %.085, %.lr.ph86 ], [ 1, %.preheader66 ], [ %.3, %.loopexit67.loopexit ]
  %37 = trunc nuw i8 %.1 to i1
  %38 = load ptr, ptr @amatches, align 8
  %39 = icmp ne ptr %38, null
  %or.cond3 = select i1 %37, i1 %39, i1 false
  br i1 %or.cond3, label %.preheader, label %.loopexit65

.preheader:                                       ; preds = %.loopexit67
  %40 = getelementptr inbounds nuw i8, ptr %38, i64 8
  %41 = load i32, ptr %40, align 8
  %.not89 = icmp eq i32 %41, 0
  br i1 %.not89, label %.loopexit65, label %.lr.ph74

.lr.ph74:                                         ; preds = %.preheader
  %42 = load ptr, ptr %38, align 8
  br label %43

43:                                               ; preds = %.lr.ph74, %43
  %.05872 = phi i32 [ 0, %.lr.ph74 ], [ %48, %43 ]
  %44 = sext i32 %.05872 to i64
  %45 = getelementptr inbounds i64, ptr %42, i64 %44
  %46 = load i64, ptr %45, align 8
  %47 = icmp ne i64 %46, %16
  %48 = add nuw i32 %.05872, 1
  %49 = icmp ult i32 %48, %41
  %50 = select i1 %49, i1 %47, i1 false
  br i1 %50, label %43, label %.loopexit65.loopexit, !llvm.loop !12

.loopexit65.loopexit:                             ; preds = %43
  %spec.select = zext i1 %47 to i8
  br label %.loopexit65

.loopexit65:                                      ; preds = %.loopexit65.loopexit, %.preheader, %.loopexit67
  %.4 = phi i8 [ %.1, %.loopexit67 ], [ 1, %.preheader ], [ %spec.select, %.loopexit65.loopexit ]
  %51 = load i8, ptr @disas_assist, align 1, !range !3, !noundef !4
  %52 = trunc nuw i8 %51 to i1
  %53 = load ptr, ptr @rmatches, align 8
  %54 = icmp ne ptr %53, null
  %or.cond5 = select i1 %52, i1 %54, i1 false
  br i1 %or.cond5, label %55, label %.loopexit

55:                                               ; preds = %.loopexit65
  %56 = call ptr @g_strstr_len(ptr noundef %15, i64 noundef -1, ptr noundef nonnull @.str.9) #7
  %57 = load ptr, ptr @all_reg_names, align 8
  %58 = getelementptr inbounds nuw i8, ptr %57, i64 8
  %59 = load i32, ptr %58, align 8
  %.not90 = icmp eq i32 %59, 0
  br i1 %.not90, label %.loopexit, label %.lr.ph79

.lr.ph79:                                         ; preds = %55, %.lr.ph79
  %60 = phi ptr [ %67, %.lr.ph79 ], [ %57, %55 ]
  %.878 = phi i8 [ %spec.select63, %.lr.ph79 ], [ %.4, %55 ]
  %.04877 = phi i32 [ %66, %.lr.ph79 ], [ 0, %55 ]
  %.55676 = phi i8 [ %spec.select62, %.lr.ph79 ], [ 0, %55 ]
  %61 = load ptr, ptr %60, align 8
  %62 = sext i32 %.04877 to i64
  %63 = getelementptr inbounds ptr, ptr %61, i64 %62
  %64 = load ptr, ptr %63, align 8
  %65 = call ptr @g_strrstr(ptr noundef %56, ptr noundef %64) #7
  %.not = icmp eq ptr %65, null
  %spec.select62 = select i1 %.not, i8 %.55676, i8 1
  %spec.select63 = select i1 %.not, i8 %.878, i8 0
  %66 = add nuw i32 %.04877, 1
  %67 = load ptr, ptr @all_reg_names, align 8
  %68 = getelementptr inbounds nuw i8, ptr %67, i64 8
  %69 = load i32, ptr %68, align 8
  %70 = icmp ult i32 %66, %69
  br i1 %70, label %.lr.ph79, label %.loopexit, !llvm.loop !13

.loopexit:                                        ; preds = %.lr.ph79, %55, %.loopexit65
  %.455 = phi i8 [ %.152, %.loopexit65 ], [ 0, %55 ], [ %spec.select62, %.lr.ph79 ]
  %.7 = phi i8 [ %.4, %.loopexit65 ], [ %.4, %55 ], [ %spec.select63, %.lr.ph79 ]
  %71 = trunc nuw i8 %.7 to i1
  br i1 %71, label %72, label %75

72:                                               ; preds = %.loopexit
  %73 = trunc i8 %.04984 to i1
  br i1 %73, label %74, label %89

74:                                               ; preds = %72
  call void @qemu_plugin_register_vcpu_insn_exec_cb(ptr noundef %14, ptr noundef nonnull @vcpu_insn_exec_only_regs, i32 noundef 1, ptr noundef null) #7
  br label %89

75:                                               ; preds = %.loopexit
  call void @llvm.lifetime.start.p0(i64 4, ptr nonnull %3) #7
  store i32 0, ptr %3, align 4
  %76 = call i64 @qemu_plugin_insn_data(ptr noundef %14, ptr noundef nonnull %3, i64 noundef 4) #7
  %77 = load i32, ptr %3, align 4
  %78 = call noalias ptr (ptr, ...) @g_strdup_printf(ptr noundef nonnull @.str.10, i64 noundef %16, i32 noundef %77, ptr noundef %15) #7
  call void @qemu_plugin_register_vcpu_mem_cb(ptr noundef %14, ptr noundef nonnull @vcpu_mem, i32 noundef 0, i32 noundef 3, ptr noundef null) #7
  %79 = trunc i8 %.04984 to i1
  br i1 %79, label %80, label %81

80:                                               ; preds = %75
  call void @qemu_plugin_register_vcpu_insn_exec_cb(ptr noundef %14, ptr noundef nonnull @vcpu_insn_exec_with_regs, i32 noundef 1, ptr noundef %78) #7
  br label %82

81:                                               ; preds = %75
  call void @qemu_plugin_register_vcpu_insn_exec_cb(ptr noundef %14, ptr noundef nonnull @vcpu_insn_exec, i32 noundef 0, ptr noundef %78) #7
  br label %82

82:                                               ; preds = %81, %80
  %83 = load ptr, ptr @imatches, align 8
  %84 = icmp ne ptr %83, null
  %85 = load ptr, ptr @amatches, align 8
  %86 = icmp ne ptr %85, null
  %87 = select i1 %84, i1 true, i1 %86
  %88 = zext i1 %87 to i8
  call void @llvm.lifetime.end.p0(i64 4, ptr nonnull %3) #7
  br label %89

89:                                               ; preds = %72, %74, %82
  %.10 = phi i8 [ 1, %74 ], [ 1, %72 ], [ %88, %82 ]
  %90 = load i8, ptr @disas_assist, align 1, !range !3, !noundef !4
  %91 = trunc nuw i8 %90 to i1
  %92 = load ptr, ptr @rmatches, align 8
  %93 = icmp ne ptr %92, null
  %or.cond7 = select i1 %91, i1 %93, i1 false
  %spec.select64 = select i1 %or.cond7, i8 %.455, i8 %.04984
  call void @g_free(ptr noundef %15) #7
  %94 = add nuw i64 %.05982, 1
  %exitcond.not = icmp eq i64 %94, %7
  br i1 %exitcond.not, label %._crit_edge, label %.lr.ph86, !llvm.loop !14
}